; Function Attrs: mustprogress uwtable
define hidden noundef zeroext i1 @_ZNK3nla6basics22is_separated_from_zeroERKNS_13factorizationE(ptr noundef nonnull align 8 dereferenceable(184) %this, ptr nocapture noundef nonnull readonly align 8 dereferenceable(16) %f) local_unnamed_addr #3 align 2 {
entry:
  %0 = load ptr, ptr %f, align 8
  %cmp.i.i.i = icmp eq ptr %0, null
  br i1 %cmp.i.i.i, label %return, label %_ZNK3nla13factorization3endEv.exit

_ZNK3nla13factorization3endEv.exit:               ; preds = %entry
  %arrayidx.i.i.i = getelementptr inbounds i8, ptr %0, i64 -4
  %1 = load i32, ptr %arrayidx.i.i.i, align 4
  %2 = zext i32 %1 to i64
  %add.ptr.i.i = getelementptr inbounds %"class.nla::factor", ptr %0, i64 %2
  %cmp.not5 = icmp eq i32 %1, 0
  br i1 %cmp.not5, label %return, label %for.body

for.body:                                         ; preds = %_ZNK3nla13factorization3endEv.exit, %for.inc
  %__begin1.06 = phi ptr [ %incdec.ptr, %for.inc ], [ %0, %_ZNK3nla13factorization3endEv.exit ]
  %call3 = tail call noundef i32 @_ZNK3nla6common3varINS_6factorEEEjRKT_(ptr noundef nonnull align 8 dereferenceable(184) %this, ptr noundef nonnull align 4 dereferenceable(9) %__begin1.06)
  %3 = load ptr, ptr %this, align 8
  %call5 = tail call noundef zeroext i1 @_ZNK3nla4core28var_has_positive_lower_boundEj(ptr noundef nonnull align 8 dereferenceable(4720) %3, i32 noundef %call3)
  br i1 %call5, label %for.inc, label %lor.lhs.false

lor.lhs.false:                                    ; preds = %for.body
  %4 = load ptr, ptr %this, align 8
  %call7 = tail call noundef zeroext i1 @_ZNK3nla4core28var_has_negative_upper_boundEj(ptr noundef nonnull align 8 dereferenceable(4720) %4, i32 noundef %call3)
  br i1 %call7, label %for.inc, label %return

for.inc:                                          ; preds = %for.body, %lor.lhs.false
  %incdec.ptr = getelementptr inbounds i8, ptr %__begin1.06, i64 12
  %cmp.not = icmp eq ptr %incdec.ptr, %add.ptr.i.i
  br i1 %cmp.not, label %return, label %for.body

return:                                           ; preds = %lor.lhs.false, %for.inc, %entry, %_ZNK3nla13factorization3endEv.exit
  %cmp.not.lcssa = phi i1 [ true, %_ZNK3nla13factorization3endEv.exit ], [ true, %entry ], [ true, %for.inc ], [ false, %lor.lhs.false ]
  ret i1 %cmp.not.lcssa
}